target datalayout = "e-m:e-p270:32:32-p271:32:32-p272:64:64-i64:64-i128:128-f80:128-n8:16:32:64-S128"
target triple = "x86_64-pc-linux-gnu"

%struct.FT_GlyphRec_ = type { ptr, ptr, i32, %struct.FT_Vector_ }
%struct.FT_Vector_ = type { i64, i64 }
%struct.FT_GlyphSlotRec_ = type { ptr, ptr, ptr, i32, %struct.FT_Generic_, %struct.FT_Glyph_Metrics_, i64, i64, %struct.FT_Vector_, i32, %struct.FT_Bitmap_, i32, i32, %struct.FT_Outline_, i32, ptr, ptr, i64, i64, i64, ptr, ptr }
%struct.FT_Generic_ = type { ptr, ptr }
%struct.FT_Glyph_Metrics_ = type { i64, i64, i64, i64, i64, i64, i64, i64 }
%struct.FT_Bitmap_ = type { i32, i32, i32, ptr, i16, i8, i8, ptr }
%struct.FT_Outline_ = type { i16, i16, ptr, ptr, ptr, i32 }
%struct.FT_BitmapGlyphRec_ = type { %struct.FT_GlyphRec_, i32, i32, %struct.FT_Bitmap_ }
%struct.FT_Slot_InternalRec_ = type { ptr, i32, i8, %struct.FT_Matrix_, %struct.FT_Vector_, ptr, i32 }
%struct.FT_Matrix_ = type { i64, i64, i64, i64 }
%struct.FT_LibraryRec_ = type { ptr, i32, i32, i32, i32, [32 x ptr], %struct.FT_ListRec_, ptr, ptr, [4 x ptr], [3 x %struct.FT_Vector_], i32 }
%struct.FT_ListRec_ = type { ptr, ptr }
%struct.FT_Glyph_Class_ = type { i64, i32, ptr, ptr, ptr, ptr, ptr, ptr }

@ft_bitmap_glyph_class = hidden constant { i64, i32, [4 x i8], ptr, ptr, ptr, ptr, ptr, ptr } { i64 88, i32 1651078259, [4 x i8] zeroinitializer, ptr @ft_bitmap_glyph_init, ptr @ft_bitmap_glyph_done, ptr @ft_bitmap_glyph_copy, ptr null, ptr @ft_bitmap_glyph_bbox, ptr null }, align 8
@ft_svg_glyph_class = hidden constant { i64, i32, [4 x i8], ptr, ptr, ptr, ptr, ptr, ptr } { i64 176, i32 1398163232, [4 x i8] zeroinitializer, ptr @ft_svg_glyph_init, ptr @ft_svg_glyph_done, ptr @ft_svg_glyph_copy, ptr @ft_svg_glyph_transform, ptr null, ptr @ft_svg_glyph_prepare }, align 8

; Function Attrs: nounwind uwtable
define i32 @FT_Glyph_Transform(ptr noundef %0, ptr noundef %1, ptr noundef %2) #0 {
  %4 = alloca ptr, align 8
  %5 = alloca ptr, align 8
  %6 = alloca ptr, align 8
  %7 = alloca i32, align 4
  %8 = alloca ptr, align 8
  store ptr %0, ptr %4, align 8, !tbaa !3
  store ptr %1, ptr %5, align 8, !tbaa !67
  store ptr %2, ptr %6, align 8, !tbaa !69
  call void @llvm.lifetime.start.p0(i64 4, ptr %7) #6
  store i32 0, ptr %7, align 4, !tbaa !12
  %9 = load ptr, ptr %4, align 8, !tbaa !3
  %10 = icmp ne ptr %9, null
  br i1 %10, label %11, label %16

11:                                               ; preds = %3
  %12 = load ptr, ptr %4, align 8, !tbaa !3
  %13 = getelementptr inbounds nuw %struct.FT_GlyphRec_, ptr %12, i32 0, i32 1
  %14 = load ptr, ptr %13, align 8, !tbaa !116
  %15 = icmp ne ptr %14, null
  br i1 %15, label %17, label %16

16:                                               ; preds = %11, %3
  store i32 6, ptr %7, align 4, !tbaa !12
  br label %41

17:                                               ; preds = %11
  call void @llvm.lifetime.start.p0(i64 8, ptr %8) #6
  %18 = load ptr, ptr %4, align 8, !tbaa !3
  %19 = getelementptr inbounds nuw %struct.FT_GlyphRec_, ptr %18, i32 0, i32 1
  %20 = load ptr, ptr %19, align 8, !tbaa !116
  store ptr %20, ptr %8, align 8, !tbaa !117
  %21 = load ptr, ptr %8, align 8, !tbaa !117
  %22 = getelementptr inbounds nuw %struct.FT_Glyph_Class_, ptr %21, i32 0, i32 5
  %23 = load ptr, ptr %22, align 8, !tbaa !130
  %24 = icmp ne ptr %23, null
  br i1 %24, label %25, label %39

25:                                               ; preds = %17
  %26 = load ptr, ptr %8, align 8, !tbaa !117
  %27 = getelementptr inbounds nuw %struct.FT_Glyph_Class_, ptr %26, i32 0, i32 5
  %28 = load ptr, ptr %27, align 8, !tbaa !130
  %29 = load ptr, ptr %4, align 8, !tbaa !3
  %30 = load ptr, ptr %5, align 8, !tbaa !67
  %31 = load ptr, ptr %6, align 8, !tbaa !69
  call void %28(ptr noundef %29, ptr noundef %30, ptr noundef %31)
  %32 = load ptr, ptr %5, align 8, !tbaa !67
  %33 = icmp ne ptr %32, null
  br i1 %33, label %34, label %38

34:                                               ; preds = %25
  %35 = load ptr, ptr %4, align 8, !tbaa !3
  %36 = getelementptr inbounds nuw %struct.FT_GlyphRec_, ptr %35, i32 0, i32 3
  %37 = load ptr, ptr %5, align 8, !tbaa !67
  call void @FT_Vector_Transform(ptr noundef %36, ptr noundef %37)
  br label %38

38:                                               ; preds = %34, %25
  br label %40

39:                                               ; preds = %17
  store i32 18, ptr %7, align 4, !tbaa !12
  br label %40

40:                                               ; preds = %39, %38
  call void @llvm.lifetime.end.p0(i64 8, ptr %8) #6
  br label %41

41:                                               ; preds = %40, %16
  %42 = load i32, ptr %7, align 4, !tbaa !12
  call void @llvm.lifetime.end.p0(i64 4, ptr %7) #6
  ret i32 %42
}

; Function Attrs: nounwind uwtable
define internal i32 @ft_new_glyph(ptr noundef %0, ptr noundef %1, ptr noundef %2) #0 {
  %4 = alloca ptr, align 8
  %5 = alloca ptr, align 8
  %6 = alloca ptr, align 8
  %7 = alloca ptr, align 8
  %8 = alloca i32, align 4
  %9 = alloca ptr, align 8
  store ptr %0, ptr %4, align 8, !tbaa !20
  store ptr %1, ptr %5, align 8, !tbaa !117
  store ptr %2, ptr %6, align 8, !tbaa !114
  call void @llvm.lifetime.start.p0(i64 8, ptr %7) #6
  %10 = load ptr, ptr %4, align 8, !tbaa !20
  %11 = getelementptr inbounds nuw %struct.FT_LibraryRec_, ptr %10, i32 0, i32 0
  %12 = load ptr, ptr %11, align 8, !tbaa !77
  store ptr %12, ptr %7, align 8, !tbaa !84
  call void @llvm.lifetime.start.p0(i64 4, ptr %8) #6
  call void @llvm.lifetime.start.p0(i64 8, ptr %9) #6
  store ptr null, ptr %9, align 8, !tbaa !3
  %13 = load ptr, ptr %6, align 8, !tbaa !114
  store ptr null, ptr %13, align 8, !tbaa !3
  %14 = load ptr, ptr %7, align 8, !tbaa !84
  %15 = load ptr, ptr %5, align 8, !tbaa !117
  %16 = getelementptr inbounds nuw %struct.FT_Glyph_Class_, ptr %15, i32 0, i32 0
  %17 = load i64, ptr %16, align 8, !tbaa !120
  %18 = call ptr @ft_mem_alloc(ptr noundef %14, i64 noundef %17, ptr noundef %8)
  store ptr %18, ptr %9, align 8, !tbaa !3
  %19 = load i32, ptr %8, align 4, !tbaa !12
  %20 = icmp ne i32 %19, 0
  br i1 %20, label %35, label %21

21:                                               ; preds = %3
  %22 = load ptr, ptr %4, align 8, !tbaa !20
  %23 = load ptr, ptr %9, align 8, !tbaa !3
  %24 = getelementptr inbounds nuw %struct.FT_GlyphRec_, ptr %23, i32 0, i32 0
  store ptr %22, ptr %24, align 8, !tbaa !14
  %25 = load ptr, ptr %5, align 8, !tbaa !117
  %26 = load ptr, ptr %9, align 8, !tbaa !3
  %27 = getelementptr inbounds nuw %struct.FT_GlyphRec_, ptr %26, i32 0, i32 1
  store ptr %25, ptr %27, align 8, !tbaa !116
  %28 = load ptr, ptr %5, align 8, !tbaa !117
  %29 = getelementptr inbounds nuw %struct.FT_Glyph_Class_, ptr %28, i32 0, i32 1
  %30 = load i32, ptr %29, align 8, !tbaa !121
  %31 = load ptr, ptr %9, align 8, !tbaa !3
  %32 = getelementptr inbounds nuw %struct.FT_GlyphRec_, ptr %31, i32 0, i32 2
  store i32 %30, ptr %32, align 8, !tbaa !107
  %33 = load ptr, ptr %9, align 8, !tbaa !3
  %34 = load ptr, ptr %6, align 8, !tbaa !114
  store ptr %33, ptr %34, align 8, !tbaa !3
  br label %35

35:                                               ; preds = %21, %3
  %36 = load i32, ptr %8, align 4, !tbaa !12
  call void @llvm.lifetime.end.p0(i64 8, ptr %9) #6
  call void @llvm.lifetime.end.p0(i64 4, ptr %8) #6
  call void @llvm.lifetime.end.p0(i64 8, ptr %7) #6
  ret i32 %36
}

; Function Attrs: nounwind uwtable
define i32 @FT_Glyph_To_Bitmap(ptr noundef %0, i32 noundef %1, ptr noundef %2, i8 noundef zeroext %3) #0 {
  %5 = alloca ptr, align 8
  %6 = alloca i32, align 4
  %7 = alloca ptr, align 8
  %8 = alloca i8, align 1
  %9 = alloca %struct.FT_GlyphSlotRec_, align 8
  %10 = alloca %struct.FT_Slot_InternalRec_, align 8
  %11 = alloca i32, align 4
  %12 = alloca ptr, align 8
  %13 = alloca ptr, align 8
  %14 = alloca ptr, align 8
  %15 = alloca ptr, align 8
  %16 = alloca ptr, align 8
  %17 = alloca ptr, align 8
  %18 = alloca %struct.FT_Vector_, align 8
  store ptr %0, ptr %5, align 8, !tbaa !114
  store i32 %1, ptr %6, align 4, !tbaa !12
  store ptr %2, ptr %7, align 8, !tbaa !69
  store i8 %3, ptr %8, align 1, !tbaa !47
  call void @llvm.lifetime.start.p0(i64 304, ptr %9) #6
  call void @llvm.lifetime.start.p0(i64 80, ptr %10) #6
  call void @llvm.lifetime.start.p0(i64 4, ptr %11) #6
  store i32 0, ptr %11, align 4, !tbaa !12
  call void @llvm.lifetime.start.p0(i64 8, ptr %12) #6
  call void @llvm.lifetime.start.p0(i64 8, ptr %13) #6
  call void @llvm.lifetime.start.p0(i64 8, ptr %14) #6
  store ptr null, ptr %14, align 8, !tbaa !10
  call void @llvm.lifetime.start.p0(i64 8, ptr %15) #6
  call void @llvm.lifetime.start.p0(i64 8, ptr %16) #6
  %19 = load ptr, ptr %5, align 8, !tbaa !114
  %20 = icmp ne ptr %19, null
  br i1 %20, label %22, label %21

21:                                               ; preds = %4
  br label %152

22:                                               ; preds = %4
  %23 = load ptr, ptr %5, align 8, !tbaa !114
  %24 = load ptr, ptr %23, align 8, !tbaa !3
  store ptr %24, ptr %13, align 8, !tbaa !3
  %25 = load ptr, ptr %13, align 8, !tbaa !3
  %26 = icmp ne ptr %25, null
  br i1 %26, label %28, label %27

27:                                               ; preds = %22
  br label %152

28:                                               ; preds = %22
  %29 = load ptr, ptr %13, align 8, !tbaa !3
  %30 = getelementptr inbounds nuw %struct.FT_GlyphRec_, ptr %29, i32 0, i32 1
  %31 = load ptr, ptr %30, align 8, !tbaa !116
  store ptr %31, ptr %15, align 8, !tbaa !117
  %32 = load ptr, ptr %13, align 8, !tbaa !3
  %33 = getelementptr inbounds nuw %struct.FT_GlyphRec_, ptr %32, i32 0, i32 0
  %34 = load ptr, ptr %33, align 8, !tbaa !14
  store ptr %34, ptr %16, align 8, !tbaa !20
  %35 = load ptr, ptr %16, align 8, !tbaa !20
  %36 = icmp ne ptr %35, null
  br i1 %36, label %37, label %40

37:                                               ; preds = %28
  %38 = load ptr, ptr %15, align 8, !tbaa !117
  %39 = icmp ne ptr %38, null
  br i1 %39, label %41, label %40

40:                                               ; preds = %37, %28
  br label %152

41:                                               ; preds = %37
  %42 = load ptr, ptr %15, align 8, !tbaa !117
  %43 = icmp eq ptr %42, @ft_bitmap_glyph_class
  br i1 %43, label %44, label %45

44:                                               ; preds = %41
  br label %142

45:                                               ; preds = %41
  %46 = load ptr, ptr %15, align 8, !tbaa !117
  %47 = getelementptr inbounds nuw %struct.FT_Glyph_Class_, ptr %46, i32 0, i32 7
  %48 = load ptr, ptr %47, align 8, !tbaa !132
  %49 = icmp ne ptr %48, null
  br i1 %49, label %51, label %50

50:                                               ; preds = %45
  br label %152

51:                                               ; preds = %45
  call void @llvm.memset.p0.i64(ptr align 8 %9, i8 0, i64 304, i1 false)
  call void @llvm.memset.p0.i64(ptr align 8 %10, i8 0, i64 80, i1 false)
  %52 = getelementptr inbounds nuw %struct.FT_GlyphSlotRec_, ptr %9, i32 0, i32 21
  store ptr %10, ptr %52, align 8, !tbaa !39
  %53 = load ptr, ptr %16, align 8, !tbaa !20
  %54 = getelementptr inbounds nuw %struct.FT_GlyphSlotRec_, ptr %9, i32 0, i32 0
  store ptr %53, ptr %54, align 8, !tbaa !124
  %55 = load ptr, ptr %15, align 8, !tbaa !117
  %56 = getelementptr inbounds nuw %struct.FT_Glyph_Class_, ptr %55, i32 0, i32 1
  %57 = load i32, ptr %56, align 8, !tbaa !121
  %58 = getelementptr inbounds nuw %struct.FT_GlyphSlotRec_, ptr %9, i32 0, i32 9
  store i32 %57, ptr %58, align 8, !tbaa !21
  %59 = load ptr, ptr %16, align 8, !tbaa !20
  %60 = call i32 @ft_new_glyph(ptr noundef %59, ptr noundef @ft_bitmap_glyph_class, ptr noundef %12)
  store i32 %60, ptr %11, align 4, !tbaa !12
  %61 = load i32, ptr %11, align 4, !tbaa !12
  %62 = icmp ne i32 %61, 0
  br i1 %62, label %63, label %64

63:                                               ; preds = %51
  br label %142

64:                                               ; preds = %51
  %65 = load ptr, ptr %12, align 8, !tbaa !3
  store ptr %65, ptr %14, align 8, !tbaa !10
  %66 = load ptr, ptr %7, align 8, !tbaa !69
  %67 = icmp ne ptr %66, null
  br i1 %67, label %68, label %72

68:                                               ; preds = %64
  %69 = load ptr, ptr %13, align 8, !tbaa !3
  %70 = load ptr, ptr %7, align 8, !tbaa !69
  %71 = call i32 @FT_Glyph_Transform(ptr noundef %69, ptr noundef null, ptr noundef %70)
  br label %72

72:                                               ; preds = %68, %64
  %73 = load ptr, ptr %15, align 8, !tbaa !117
  %74 = getelementptr inbounds nuw %struct.FT_Glyph_Class_, ptr %73, i32 0, i32 7
  %75 = load ptr, ptr %74, align 8, !tbaa !132
  %76 = load ptr, ptr %13, align 8, !tbaa !3
  %77 = call i32 %75(ptr noundef %76, ptr noundef %9)
  store i32 %77, ptr %11, align 4, !tbaa !12
  %78 = load i32, ptr %11, align 4, !tbaa !12
  %79 = icmp ne i32 %78, 0
  br i1 %79, label %86, label %80

80:                                               ; preds = %72
  %81 = load ptr, ptr %13, align 8, !tbaa !3
  %82 = getelementptr inbounds nuw %struct.FT_GlyphRec_, ptr %81, i32 0, i32 0
  %83 = load ptr, ptr %82, align 8, !tbaa !14
  %84 = load i32, ptr %6, align 4, !tbaa !12
  %85 = call i32 @FT_Render_Glyph_Internal(ptr noundef %83, ptr noundef %9, i32 noundef %84)
  store i32 %85, ptr %11, align 4, !tbaa !12
  br label %86

86:                                               ; preds = %80, %72
  %87 = load ptr, ptr %15, align 8, !tbaa !117
  %88 = icmp eq ptr %87, @ft_svg_glyph_class
  br i1 %88, label %89, label %100

89:                                               ; preds = %86
  call void @llvm.lifetime.start.p0(i64 8, ptr %17) #6
  %90 = load ptr, ptr %16, align 8, !tbaa !20
  %91 = getelementptr inbounds nuw %struct.FT_LibraryRec_, ptr %90, i32 0, i32 0
  %92 = load ptr, ptr %91, align 8, !tbaa !77
  store ptr %92, ptr %17, align 8, !tbaa !84
  br label %93

93:                                               ; preds = %89
  %94 = load ptr, ptr %17, align 8, !tbaa !84
  %95 = getelementptr inbounds nuw %struct.FT_GlyphSlotRec_, ptr %9, i32 0, i32 20
  %96 = load ptr, ptr %95, align 8, !tbaa !85
  call void @ft_mem_free(ptr noundef %94, ptr noundef %96)
  %97 = getelementptr inbounds nuw %struct.FT_GlyphSlotRec_, ptr %9, i32 0, i32 20
  store ptr null, ptr %97, align 8, !tbaa !85
  br label %98

98:                                               ; preds = %93
  br label %99

99:                                               ; preds = %98
  call void @llvm.lifetime.end.p0(i64 8, ptr %17) #6
  br label %100

100:                                              ; preds = %99, %86
  %101 = load i8, ptr %8, align 1, !tbaa !47
  %102 = icmp ne i8 %101, 0
  br i1 %102, label %119, label %103

103:                                              ; preds = %100
  %104 = load ptr, ptr %7, align 8, !tbaa !69
  %105 = icmp ne ptr %104, null
  br i1 %105, label %106, label %119

106:                                              ; preds = %103
  call void @llvm.lifetime.start.p0(i64 16, ptr %18) #6
  %107 = load ptr, ptr %7, align 8, !tbaa !69
  %108 = getelementptr inbounds nuw %struct.FT_Vector_, ptr %107, i32 0, i32 0
  %109 = load i64, ptr %108, align 8, !tbaa !70
  %110 = sub nsw i64 0, %109
  %111 = getelementptr inbounds nuw %struct.FT_Vector_, ptr %18, i32 0, i32 0
  store i64 %110, ptr %111, align 8, !tbaa !70
  %112 = load ptr, ptr %7, align 8, !tbaa !69
  %113 = getelementptr inbounds nuw %struct.FT_Vector_, ptr %112, i32 0, i32 1
  %114 = load i64, ptr %113, align 8, !tbaa !71
  %115 = sub nsw i64 0, %114
  %116 = getelementptr inbounds nuw %struct.FT_Vector_, ptr %18, i32 0, i32 1
  store i64 %115, ptr %116, align 8, !tbaa !71
  %117 = load ptr, ptr %13, align 8, !tbaa !3
  %118 = call i32 @FT_Glyph_Transform(ptr noundef %117, ptr noundef null, ptr noundef %18)
  call void @llvm.lifetime.end.p0(i64 16, ptr %18) #6
  br label %119

119:                                              ; preds = %106, %103, %100
  %120 = load i32, ptr %11, align 4, !tbaa !12
  %121 = icmp ne i32 %120, 0
  br i1 %121, label %122, label %123

122:                                              ; preds = %119
  br label %142

123:                                              ; preds = %119
  %124 = load ptr, ptr %14, align 8, !tbaa !10
  %125 = call i32 @ft_bitmap_glyph_init(ptr noundef %124, ptr noundef %9)
  store i32 %125, ptr %11, align 4, !tbaa !12
  %126 = load i32, ptr %11, align 4, !tbaa !12
  %127 = icmp ne i32 %126, 0
  br i1 %127, label %128, label %129

128:                                              ; preds = %123
  br label %142

129:                                              ; preds = %123
  %130 = load ptr, ptr %14, align 8, !tbaa !10
  %131 = getelementptr inbounds nuw %struct.FT_BitmapGlyphRec_, ptr %130, i32 0, i32 0
  %132 = getelementptr inbounds nuw %struct.FT_GlyphRec_, ptr %131, i32 0, i32 3
  %133 = load ptr, ptr %13, align 8, !tbaa !3
  %134 = getelementptr inbounds nuw %struct.FT_GlyphRec_, ptr %133, i32 0, i32 3
  call void @llvm.memcpy.p0.p0.i64(ptr align 8 %132, ptr align 8 %134, i64 16, i1 false), !tbaa.struct !105
  %135 = load i8, ptr %8, align 1, !tbaa !47
  %136 = icmp ne i8 %135, 0
  br i1 %136, label %137, label %139

137:                                              ; preds = %129
  %138 = load ptr, ptr %13, align 8, !tbaa !3
  call void @FT_Done_Glyph(ptr noundef %138)
  br label %139

139:                                              ; preds = %137, %129
  %140 = load ptr, ptr %14, align 8, !tbaa !10
  %141 = load ptr, ptr %5, align 8, !tbaa !114
  store ptr %140, ptr %141, align 8, !tbaa !3
  br label %142

142:                                              ; preds = %152, %139, %128, %122, %63, %44
  %143 = load i32, ptr %11, align 4, !tbaa !12
  %144 = icmp ne i32 %143, 0
  br i1 %144, label %145, label %150

145:                                              ; preds = %142
  %146 = load ptr, ptr %14, align 8, !tbaa !10
  %147 = icmp ne ptr %146, null
  br i1 %147, label %148, label %150

148:                                              ; preds = %145
  %149 = load ptr, ptr %14, align 8, !tbaa !10
  call void @FT_Done_Glyph(ptr noundef %149)
  br label %150

150:                                              ; preds = %148, %145, %142
  %151 = load i32, ptr %11, align 4, !tbaa !12
  call void @llvm.lifetime.end.p0(i64 8, ptr %16) #6
  call void @llvm.lifetime.end.p0(i64 8, ptr %15) #6
  call void @llvm.lifetime.end.p0(i64 8, ptr %14) #6
  call void @llvm.lifetime.end.p0(i64 8, ptr %13) #6
  call void @llvm.lifetime.end.p0(i64 8, ptr %12) #6
  call void @llvm.lifetime.end.p0(i64 4, ptr %11) #6
  call void @llvm.lifetime.end.p0(i64 80, ptr %10) #6
  call void @llvm.lifetime.end.p0(i64 304, ptr %9) #6
  ret i32 %151

152:                                              ; preds = %50, %40, %27, %21
  store i32 6, ptr %11, align 4, !tbaa !12
  br label %142
}