; Function Attrs: nounwind uwtable
define i32 @FT_Glyph_To_Bitmap(ptr noundef %0, i32 noundef %1, ptr noundef %2, i8 noundef zeroext %3) local_unnamed_addr #0 {
  %5 = alloca i32, align 4
  %6 = alloca %struct.FT_GlyphSlotRec_, align 8
  %7 = alloca %struct.FT_Slot_InternalRec_, align 8
  %8 = alloca %struct.FT_Vector_, align 8
  call void @llvm.lifetime.start.p0(i64 304, ptr nonnull %6) #6
  call void @llvm.lifetime.start.p0(i64 80, ptr nonnull %7) #6
  %.not = icmp eq ptr %0, null
  br i1 %.not, label %.thread, label %9

9:                                                ; preds = %4
  %10 = load ptr, ptr %0, align 8, !tbaa !96
  %.not57 = icmp eq ptr %10, null
  br i1 %.not57, label %.thread, label %11

11:                                               ; preds = %9
  %12 = getelementptr inbounds nuw i8, ptr %10, i64 8
  %13 = load ptr, ptr %12, align 8, !tbaa !95
  %14 = load ptr, ptr %10, align 8, !tbaa !3
  %15 = icmp ne ptr %14, null
  %16 = icmp ne ptr %13, null
  %or.cond = select i1 %15, i1 %16, i1 false
  br i1 %or.cond, label %17, label %.thread

17:                                               ; preds = %11
  %18 = icmp eq ptr %13, @ft_bitmap_glyph_class
  br i1 %18, label %.thread, label %19

19:                                               ; preds = %17
  %20 = getelementptr inbounds nuw i8, ptr %13, i64 56
  %21 = load ptr, ptr %20, align 8, !tbaa !111
  %.not58 = icmp eq ptr %21, null
  br i1 %.not58, label %.thread, label %22

22:                                               ; preds = %19
  %23 = getelementptr inbounds nuw i8, ptr %6, i64 8
  call void @llvm.memset.p0.i64(ptr noundef nonnull align 8 dereferenceable(304) %23, i8 0, i64 288, i1 false)
  call void @llvm.memset.p0.i64(ptr noundef nonnull align 8 dereferenceable(80) %7, i8 0, i64 80, i1 false)
  %24 = getelementptr inbounds nuw i8, ptr %6, i64 296
  store ptr %7, ptr %24, align 8, !tbaa !32
  store ptr %14, ptr %6, align 8, !tbaa !103
  %25 = getelementptr inbounds nuw i8, ptr %13, i64 8
  %26 = load i32, ptr %25, align 8, !tbaa !100
  %27 = getelementptr inbounds nuw i8, ptr %6, i64 144
  store i32 %26, ptr %27, align 8, !tbaa !13
  %28 = load ptr, ptr %14, align 8, !tbaa !61
  call void @llvm.lifetime.start.p0(i64 4, ptr nonnull %5) #6
  %29 = call ptr @ft_mem_alloc(ptr noundef %28, i64 noundef 88, ptr noundef nonnull %5) #6
  %30 = load i32, ptr %5, align 4, !tbaa !38
  %.not.i = icmp eq i32 %30, 0
  br i1 %.not.i, label %31, label %ft_new_glyph.exit

ft_new_glyph.exit:                                ; preds = %22
  call void @llvm.lifetime.end.p0(i64 4, ptr nonnull %5) #6
  br label %.thread

31:                                               ; preds = %22
  store ptr %14, ptr %29, align 8, !tbaa !3
  %32 = getelementptr inbounds nuw i8, ptr %29, i64 8
  store ptr @ft_bitmap_glyph_class, ptr %32, align 8, !tbaa !95
  %33 = getelementptr inbounds nuw i8, ptr %29, i64 16
  store i32 1651078259, ptr %33, align 8, !tbaa !88
  call void @llvm.lifetime.end.p0(i64 4, ptr nonnull %5) #6
  %34 = icmp ne ptr %2, null
  br i1 %34, label %35, label %FT_Glyph_Transform.exit

35:                                               ; preds = %31
  %36 = load ptr, ptr %12, align 8, !tbaa !95
  %.not15.i = icmp eq ptr %36, null
  br i1 %.not15.i, label %FT_Glyph_Transform.exit, label %37

37:                                               ; preds = %35
  %38 = getelementptr inbounds nuw i8, ptr %36, i64 40
  %39 = load ptr, ptr %38, align 8, !tbaa !109
  %.not16.i = icmp eq ptr %39, null
  br i1 %.not16.i, label %FT_Glyph_Transform.exit, label %40

40:                                               ; preds = %37
  call void %39(ptr noundef nonnull %10, ptr noundef null, ptr noundef nonnull %2) #6
  br label %FT_Glyph_Transform.exit

FT_Glyph_Transform.exit:                          ; preds = %40, %37, %35, %31
  %41 = load ptr, ptr %20, align 8, !tbaa !111
  %42 = call i32 %41(ptr noundef nonnull %10, ptr noundef nonnull %6) #6
  %.not60 = icmp eq i32 %42, 0
  br i1 %.not60, label %43, label %46

43:                                               ; preds = %FT_Glyph_Transform.exit
  %44 = load ptr, ptr %10, align 8, !tbaa !3
  %45 = call i32 @FT_Render_Glyph_Internal(ptr noundef %44, ptr noundef nonnull %6, i32 noundef %1) #6
  br label %46

46:                                               ; preds = %43, %FT_Glyph_Transform.exit
  %.1 = phi i32 [ %42, %FT_Glyph_Transform.exit ], [ %45, %43 ]
  %47 = icmp eq ptr %13, @ft_svg_glyph_class
  br i1 %47, label %48, label %52

48:                                               ; preds = %46
  %49 = load ptr, ptr %14, align 8, !tbaa !61
  %50 = getelementptr inbounds nuw i8, ptr %6, i64 288
  %51 = load ptr, ptr %50, align 8, !tbaa !68
  call void @ft_mem_free(ptr noundef %49, ptr noundef %51) #6
  store ptr null, ptr %50, align 8, !tbaa !68
  br label %52

52:                                               ; preds = %48, %46
  %53 = icmp eq i8 %3, 0
  %or.cond3 = and i1 %34, %53
  br i1 %or.cond3, label %54, label %66

54:                                               ; preds = %52
  call void @llvm.lifetime.start.p0(i64 16, ptr nonnull %8) #6
  %55 = load i64, ptr %2, align 8, !tbaa !55
  %56 = sub nsw i64 0, %55
  store i64 %56, ptr %8, align 8, !tbaa !55
  %57 = getelementptr inbounds nuw i8, ptr %2, i64 8
  %58 = load i64, ptr %57, align 8, !tbaa !56
  %59 = sub nsw i64 0, %58
  %60 = getelementptr inbounds nuw i8, ptr %8, i64 8
  store i64 %59, ptr %60, align 8, !tbaa !56
  %61 = load ptr, ptr %12, align 8, !tbaa !95
  %.not15.i66 = icmp eq ptr %61, null
  br i1 %.not15.i66, label %FT_Glyph_Transform.exit69, label %62

62:                                               ; preds = %54
  %63 = getelementptr inbounds nuw i8, ptr %61, i64 40
  %64 = load ptr, ptr %63, align 8, !tbaa !109
  %.not16.i67 = icmp eq ptr %64, null
  br i1 %.not16.i67, label %FT_Glyph_Transform.exit69, label %65

65:                                               ; preds = %62
  call void %64(ptr noundef nonnull %10, ptr noundef null, ptr noundef nonnull %8) #6
  br label %FT_Glyph_Transform.exit69

FT_Glyph_Transform.exit69:                        ; preds = %54, %62, %65
  call void @llvm.lifetime.end.p0(i64 16, ptr nonnull %8) #6
  br label %66

66:                                               ; preds = %FT_Glyph_Transform.exit69, %52
  %.not61 = icmp eq i32 %.1, 0
  br i1 %.not61, label %67, label %74

67:                                               ; preds = %66
  %68 = call i32 @ft_bitmap_glyph_init(ptr noundef nonnull %29, ptr noundef nonnull %6)
  %.not62 = icmp eq i32 %68, 0
  br i1 %.not62, label %69, label %74

69:                                               ; preds = %67
  %70 = getelementptr inbounds nuw i8, ptr %29, i64 24
  %71 = getelementptr inbounds nuw i8, ptr %10, i64 24
  call void @llvm.memcpy.p0.p0.i64(ptr noundef nonnull align 8 dereferenceable(16) %70, ptr noundef nonnull align 8 dereferenceable(16) %71, i64 16, i1 false), !tbaa.struct !86
  br i1 %53, label %73, label %72

72:                                               ; preds = %69
  call void @FT_Done_Glyph(ptr noundef nonnull %10)
  br label %73

73:                                               ; preds = %72, %69
  store ptr %29, ptr %0, align 8, !tbaa !96
  br label %.thread

74:                                               ; preds = %66, %67
  %.0 = phi i32 [ %.1, %66 ], [ %68, %67 ]
  %75 = load ptr, ptr %29, align 8, !tbaa !3
  %76 = load ptr, ptr %75, align 8, !tbaa !61
  %77 = load ptr, ptr %32, align 8, !tbaa !95
  %78 = getelementptr inbounds nuw i8, ptr %77, i64 24
  %79 = load ptr, ptr %78, align 8, !tbaa !102
  %.not9.i = icmp eq ptr %79, null
  br i1 %.not9.i, label %FT_Done_Glyph.exit, label %80

80:                                               ; preds = %74
  call void %79(ptr noundef nonnull %29) #6
  br label %FT_Done_Glyph.exit

FT_Done_Glyph.exit:                               ; preds = %74, %80
  call void @ft_mem_free(ptr noundef %76, ptr noundef nonnull %29) #6
  br label %.thread

.thread:                                          ; preds = %4, %9, %11, %19, %ft_new_glyph.exit, %73, %17, %FT_Done_Glyph.exit
  %.077 = phi i32 [ %.0, %FT_Done_Glyph.exit ], [ 6, %4 ], [ 6, %9 ], [ 6, %11 ], [ 6, %19 ], [ 0, %73 ], [ %30, %ft_new_glyph.exit ], [ 0, %17 ]
  call void @llvm.lifetime.end.p0(i64 80, ptr nonnull %7) #6
  call void @llvm.lifetime.end.p0(i64 304, ptr nonnull %6) #6
  ret i32 %.077
}